; Function Attrs: nounwind uwtable
define noalias ptr @l_Array_foldlMUnsafe_fold___at_Lean_Compiler_LCNF_Simp_FunDeclInfoMap_update_addLetValueOccs___spec__1___boxed(ptr noundef %0, ptr noundef %1, ptr noundef %2, ptr noundef %3, ptr noundef %4, ptr noundef %5, ptr noundef %6, ptr noundef %7, ptr noundef %8, ptr noundef %9) local_unnamed_addr #1 {
  %11 = getelementptr i8, ptr %1, i64 8
  %.val41 = load i64, ptr %11, align 8, !tbaa !16
  %12 = ptrtoint ptr %1 to i64
  %13 = and i64 %12, 1
  %.not = icmp eq i64 %13, 0
  br i1 %.not, label %14, label %lean_dec.exit26

14:                                               ; preds = %10
  %15 = load i32, ptr %1, align 4, !tbaa !4
  %16 = icmp sgt i32 %15, 1
  br i1 %16, label %17, label %19, !prof !9

17:                                               ; preds = %14
  %18 = add nsw i32 %15, -1
  store i32 %18, ptr %1, align 4, !tbaa !4
  br label %lean_dec.exit26

19:                                               ; preds = %14
  %.not.i = icmp eq i32 %15, 0
  br i1 %.not.i, label %lean_dec.exit26, label %20

20:                                               ; preds = %19
  tail call void @lean_dec_ref_cold(ptr noundef nonnull %1) #6
  br label %lean_dec.exit26

lean_dec.exit26:                                  ; preds = %20, %19, %17, %10
  %21 = getelementptr i8, ptr %2, i64 8
  %.val = load i64, ptr %21, align 8, !tbaa !16
  %22 = ptrtoint ptr %2 to i64
  %23 = and i64 %22, 1
  %.not42 = icmp eq i64 %23, 0
  br i1 %.not42, label %24, label %lean_dec.exit25

24:                                               ; preds = %lean_dec.exit26
  %25 = load i32, ptr %2, align 4, !tbaa !4
  %26 = icmp sgt i32 %25, 1
  br i1 %26, label %27, label %29, !prof !9

27:                                               ; preds = %24
  %28 = add nsw i32 %25, -1
  store i32 %28, ptr %2, align 4, !tbaa !4
  br label %lean_dec.exit25

29:                                               ; preds = %24
  %.not.i27 = icmp eq i32 %25, 0
  br i1 %.not.i27, label %lean_dec.exit25, label %30

30:                                               ; preds = %29
  tail call void @lean_dec_ref_cold(ptr noundef nonnull %2) #6
  br label %lean_dec.exit25

lean_dec.exit25:                                  ; preds = %30, %29, %27, %lean_dec.exit26
  %31 = tail call ptr @l_Array_foldlMUnsafe_fold___at_Lean_Compiler_LCNF_Simp_FunDeclInfoMap_update_addLetValueOccs___spec__1(ptr noundef %0, i64 noundef %.val41, i64 noundef %.val, ptr noundef %3, ptr noundef %4, ptr noundef %5, ptr noundef %6, ptr noundef %7, ptr noundef %8, ptr noundef %9)
  %32 = ptrtoint ptr %8 to i64
  %33 = and i64 %32, 1
  %.not43 = icmp eq i64 %33, 0
  br i1 %.not43, label %34, label %lean_dec.exit24

34:                                               ; preds = %lean_dec.exit25
  %35 = load i32, ptr %8, align 4, !tbaa !4
  %36 = icmp sgt i32 %35, 1
  br i1 %36, label %37, label %39, !prof !9

37:                                               ; preds = %34
  %38 = add nsw i32 %35, -1
  store i32 %38, ptr %8, align 4, !tbaa !4
  br label %lean_dec.exit24

39:                                               ; preds = %34
  %.not.i29 = icmp eq i32 %35, 0
  br i1 %.not.i29, label %lean_dec.exit24, label %40

40:                                               ; preds = %39
  tail call void @lean_dec_ref_cold(ptr noundef nonnull %8) #6
  br label %lean_dec.exit24

lean_dec.exit24:                                  ; preds = %40, %39, %37, %lean_dec.exit25
  %41 = ptrtoint ptr %7 to i64
  %42 = and i64 %41, 1
  %.not44 = icmp eq i64 %42, 0
  br i1 %.not44, label %43, label %lean_dec.exit23

43:                                               ; preds = %lean_dec.exit24
  %44 = load i32, ptr %7, align 4, !tbaa !4
  %45 = icmp sgt i32 %44, 1
  br i1 %45, label %46, label %48, !prof !9

46:                                               ; preds = %43
  %47 = add nsw i32 %44, -1
  store i32 %47, ptr %7, align 4, !tbaa !4
  br label %lean_dec.exit23

48:                                               ; preds = %43
  %.not.i31 = icmp eq i32 %44, 0
  br i1 %.not.i31, label %lean_dec.exit23, label %49

49:                                               ; preds = %48
  tail call void @lean_dec_ref_cold(ptr noundef nonnull %7) #6
  br label %lean_dec.exit23

lean_dec.exit23:                                  ; preds = %49, %48, %46, %lean_dec.exit24
  %50 = ptrtoint ptr %6 to i64
  %51 = and i64 %50, 1
  %.not45 = icmp eq i64 %51, 0
  br i1 %.not45, label %52, label %lean_dec.exit22

52:                                               ; preds = %lean_dec.exit23
  %53 = load i32, ptr %6, align 4, !tbaa !4
  %54 = icmp sgt i32 %53, 1
  br i1 %54, label %55, label %57, !prof !9

55:                                               ; preds = %52
  %56 = add nsw i32 %53, -1
  store i32 %56, ptr %6, align 4, !tbaa !4
  br label %lean_dec.exit22

57:                                               ; preds = %52
  %.not.i33 = icmp eq i32 %53, 0
  br i1 %.not.i33, label %lean_dec.exit22, label %58

58:                                               ; preds = %57
  tail call void @lean_dec_ref_cold(ptr noundef nonnull %6) #6
  br label %lean_dec.exit22

lean_dec.exit22:                                  ; preds = %58, %57, %55, %lean_dec.exit23
  %59 = ptrtoint ptr %5 to i64
  %60 = and i64 %59, 1
  %.not46 = icmp eq i64 %60, 0
  br i1 %.not46, label %61, label %lean_dec.exit21

61:                                               ; preds = %lean_dec.exit22
  %62 = load i32, ptr %5, align 4, !tbaa !4
  %63 = icmp sgt i32 %62, 1
  br i1 %63, label %64, label %66, !prof !9

64:                                               ; preds = %61
  %65 = add nsw i32 %62, -1
  store i32 %65, ptr %5, align 4, !tbaa !4
  br label %lean_dec.exit21

66:                                               ; preds = %61
  %.not.i35 = icmp eq i32 %62, 0
  br i1 %.not.i35, label %lean_dec.exit21, label %67

67:                                               ; preds = %66
  tail call void @lean_dec_ref_cold(ptr noundef nonnull %5) #6
  br label %lean_dec.exit21

lean_dec.exit21:                                  ; preds = %67, %66, %64, %lean_dec.exit22
  %68 = ptrtoint ptr %4 to i64
  %69 = and i64 %68, 1
  %.not47 = icmp eq i64 %69, 0
  br i1 %.not47, label %70, label %lean_dec.exit20

70:                                               ; preds = %lean_dec.exit21
  %71 = load i32, ptr %4, align 4, !tbaa !4
  %72 = icmp sgt i32 %71, 1
  br i1 %72, label %73, label %75, !prof !9

73:                                               ; preds = %70
  %74 = add nsw i32 %71, -1
  store i32 %74, ptr %4, align 4, !tbaa !4
  br label %lean_dec.exit20

75:                                               ; preds = %70
  %.not.i37 = icmp eq i32 %71, 0
  br i1 %.not.i37, label %lean_dec.exit20, label %76

76:                                               ; preds = %75
  tail call void @lean_dec_ref_cold(ptr noundef nonnull %4) #6
  br label %lean_dec.exit20

lean_dec.exit20:                                  ; preds = %76, %75, %73, %lean_dec.exit21
  %77 = ptrtoint ptr %0 to i64
  %78 = and i64 %77, 1
  %.not48 = icmp eq i64 %78, 0
  br i1 %.not48, label %79, label %lean_dec.exit

79:                                               ; preds = %lean_dec.exit20
  %80 = load i32, ptr %0, align 4, !tbaa !4
  %81 = icmp sgt i32 %80, 1
  br i1 %81, label %82, label %84, !prof !9

82:                                               ; preds = %79
  %83 = add nsw i32 %80, -1
  store i32 %83, ptr %0, align 4, !tbaa !4
  br label %lean_dec.exit

84:                                               ; preds = %79
  %.not.i39 = icmp eq i32 %80, 0
  br i1 %.not.i39, label %lean_dec.exit, label %85

85:                                               ; preds = %84
  tail call void @lean_dec_ref_cold(ptr noundef nonnull %0) #6
  br label %lean_dec.exit

lean_dec.exit:                                    ; preds = %85, %84, %82, %lean_dec.exit20
  ret ptr %31
}